; Function Attrs: mustprogress nofree norecurse nosync nounwind willreturn memory(argmem: write) uwtable
define noundef i64 @ZSTDv05_decompressBegin(ptr noundef writeonly captures(none) initializes((10252, 10256), (26640, 26680), (26732, 26740)) %0) local_unnamed_addr #10 {
  %2 = getelementptr inbounds nuw i8, ptr %0, i64 26672
  store i64 5, ptr %2, align 8, !tbaa !70
  %3 = getelementptr inbounds nuw i8, ptr %0, i64 26732
  store i32 0, ptr %3, align 4, !tbaa !73
  %4 = getelementptr inbounds nuw i8, ptr %0, i64 26640
  %5 = getelementptr inbounds nuw i8, ptr %0, i64 10252
  tail call void @llvm.memset.p0.i64(ptr noundef nonnull align 8 dereferenceable(32) %4, i8 0, i64 32, i1 false)
  store i32 12, ptr %5, align 4, !tbaa !17
  %6 = getelementptr inbounds nuw i8, ptr %0, i64 26736
  store i32 0, ptr %6, align 8, !tbaa !74
  ret i64 0
}